; ModuleID = 'source-C-CXX/56/68.c'
source_filename = "source-C-CXX/56/68.c"
target datalayout = "e-m:e-p270:32:32-p271:32:32-p272:64:64-i64:64-f80:128-n8:16:32:64-S128"
target triple = "x86_64-pc-linux-gnu"

@.str = private unnamed_addr constant [4 x i8] c"%d\0A\00", align 1

; Function Attrs: nounwind sspstrong uwtable
define dso_local i32 @main(i32 %0, i8** nocapture readnone %1) local_unnamed_addr #0 {
  %3 = alloca i32, align 4
  %4 = bitcast i32* %3 to i8*
  call void @llvm.lifetime.start.p0i8(i64 4, i8* nonnull %4) #7
  %5 = call i32 (i8*, ...) @__isoc99_scanf(i8* getelementptr inbounds ([4 x i8], [4 x i8]* @.str, i64 0, i64 0), i32* nonnull %3)
  %6 = load i32, i32* %3, align 4, !tbaa !5
  %7 = icmp sgt i32 %6, 0
  br i1 %7, label %8, label %43

8:                                                ; preds = %2, %38
  %9 = phi i32 [ %40, %38 ], [ 0, %2 ]
  %10 = call noalias align 16 dereferenceable_or_null(1000) i8* @malloc(i64 1000) #7
  %11 = call i32 (i8*, ...) bitcast (i32 (...)* @gets to i32 (i8*, ...)*)(i8* %10) #7
  %12 = call i64 @strlen(i8* noundef nonnull dereferenceable(1) %10) #8
  %13 = shl i64 %12, 32
  %14 = ashr exact i64 %13, 32
  %15 = getelementptr inbounds i8, i8* %10, i64 %14
  %16 = getelementptr inbounds i8, i8* %15, i64 -2
  %17 = load i8, i8* %16, align 1, !tbaa !9
  switch i8 %17, label %26 [
    i8 101, label %18
    i8 108, label %22
  ]

18:                                               ; preds = %8
  %19 = getelementptr inbounds i8, i8* %15, i64 -1
  %20 = load i8, i8* %19, align 1, !tbaa !9
  %21 = icmp eq i8 %20, 114
  br i1 %21, label %36, label %38

22:                                               ; preds = %8
  %23 = getelementptr inbounds i8, i8* %15, i64 -1
  %24 = load i8, i8* %23, align 1, !tbaa !9
  %25 = icmp eq i8 %24, 121
  br i1 %25, label %36, label %38

26:                                               ; preds = %8
  %27 = getelementptr inbounds i8, i8* %15, i64 -3
  %28 = load i8, i8* %27, align 1, !tbaa !9
  %29 = icmp eq i8 %28, 105
  %30 = icmp eq i8 %17, 110
  %31 = select i1 %29, i1 %30, i1 false
  br i1 %31, label %32, label %38

32:                                               ; preds = %26
  %33 = getelementptr inbounds i8, i8* %15, i64 -1
  %34 = load i8, i8* %33, align 1, !tbaa !9
  %35 = icmp eq i8 %34, 103
  br i1 %35, label %36, label %38

36:                                               ; preds = %32, %18, %22
  %37 = phi i8* [ %16, %22 ], [ %16, %18 ], [ %27, %32 ]
  store i8 0, i8* %37, align 1, !tbaa !9
  br label %38

38:                                               ; preds = %36, %22, %18, %26, %32
  %39 = call i32 @puts(i8* nonnull dereferenceable(1) %10)
  %40 = add nuw nsw i32 %9, 1
  %41 = load i32, i32* %3, align 4, !tbaa !5
  %42 = icmp slt i32 %40, %41
  br i1 %42, label %8, label %43, !llvm.loop !10

43:                                               ; preds = %38, %2
  call void @llvm.lifetime.end.p0i8(i64 4, i8* nonnull %4) #7
  ret i32 0
}

; Function Attrs: argmemonly mustprogress nofree nosync nounwind willreturn
declare void @llvm.lifetime.start.p0i8(i64 immarg, i8* nocapture) #1

; Function Attrs: nofree nounwind
declare noundef i32 @__isoc99_scanf(i8* nocapture noundef readonly, ...) local_unnamed_addr #2

; Function Attrs: inaccessiblememonly mustprogress nofree nounwind willreturn
declare noalias noundef align 16 i8* @malloc(i64 noundef) local_unnamed_addr #3

declare i32 @gets(...) local_unnamed_addr #4

; Function Attrs: argmemonly mustprogress nofree nounwind readonly willreturn
declare i64 @strlen(i8* nocapture) local_unnamed_addr #5

; Function Attrs: argmemonly mustprogress nofree nosync nounwind willreturn
declare void @llvm.lifetime.end.p0i8(i64 immarg, i8* nocapture) #1

; Function Attrs: nofree nounwind
declare noundef i32 @puts(i8* nocapture noundef readonly) local_unnamed_addr #6


!llvm.module.flags = !{!0, !1, !2, !3}
!llvm.ident = !{!4}

!0 = !{i32 1, !"wchar_size", i32 4}
!1 = !{i32 7, !"PIC Level", i32 2}
!2 = !{i32 7, !"PIE Level", i32 2}
!3 = !{i32 7, !"uwtable", i32 1}
!4 = !{!"clang version 13.0.0"}
!5 = !{!6, !6, i64 0}
!6 = !{!"int", !7, i64 0}
!7 = !{!"omnipotent char", !8, i64 0}
!8 = !{!"Simple C/C++ TBAA"}
!9 = !{!7, !7, i64 0}
!10 = distinct !{!10, !11}
!11 = !{!"llvm.loop.mustprogress"}
